target datalayout = "e-m:e-p270:32:32-p271:32:32-p272:64:64-i64:64-i128:128-f80:128-n8:16:32:64-S128"
target triple = "x86_64-pc-linux-gnu"

%struct.AVIOInterruptCB = type { ptr, ptr }

@int_cb = external constant %struct.AVIOInterruptCB, align 8
@.str.57 = private unnamed_addr constant [15 x i8] c"AVCONV_DATADIR\00", align 1
@.str.58 = private unnamed_addr constant [5 x i8] c"HOME\00", align 1
@.str.59 = private unnamed_addr constant [24 x i8] c"/usr/local/share/ffmpeg\00", align 1
@.str.60 = private unnamed_addr constant [20 x i8] c"%s%s/%s-%s.avpreset\00", align 1
@.str.61 = private unnamed_addr constant [1 x i8] zeroinitializer, align 1
@.str.62 = private unnamed_addr constant [9 x i8] c"/.avconv\00", align 1
@.str.63 = private unnamed_addr constant [17 x i8] c"%s%s/%s.avpreset\00", align 1

; Function Attrs: inlinehint nounwind uwtable
define internal void @freeenv_utf8(ptr noundef %0) #4 {
  %2 = alloca ptr, align 8
  store ptr %0, ptr %2, align 8, !tbaa !15
  ret void
}

; Function Attrs: inlinehint nounwind uwtable
define internal ptr @getenv_utf8(ptr noundef %0) #4 {
  %2 = alloca ptr, align 8
  store ptr %0, ptr %2, align 8, !tbaa !15
  %3 = load ptr, ptr %2, align 8, !tbaa !15
  %4 = call ptr @getenv(ptr noundef %3) #12
  ret ptr %4
}

; Function Attrs: nounwind uwtable
define internal i32 @get_preset_file_2(ptr noundef %0, ptr noundef %1, ptr noundef %2) #0 {
  %4 = alloca ptr, align 8
  %5 = alloca ptr, align 8
  %6 = alloca ptr, align 8
  %7 = alloca i32, align 4
  %8 = alloca i32, align 4
  %9 = alloca [1000 x i8], align 16
  %10 = alloca ptr, align 8
  %11 = alloca ptr, align 8
  %12 = alloca [3 x ptr], align 16
  store ptr %0, ptr %4, align 8, !tbaa !15
  store ptr %1, ptr %5, align 8, !tbaa !15
  store ptr %2, ptr %6, align 8, !tbaa !343
  call void @llvm.lifetime.start.p0(i64 4, ptr %7) #12
  call void @llvm.lifetime.start.p0(i64 4, ptr %8) #12
  store i32 -1, ptr %8, align 4, !tbaa !4
  call void @llvm.lifetime.start.p0(i64 1000, ptr %9) #12
  call void @llvm.lifetime.start.p0(i64 8, ptr %10) #12
  %13 = call ptr @getenv_utf8(ptr noundef @.str.57)
  store ptr %13, ptr %10, align 8, !tbaa !15
  call void @llvm.lifetime.start.p0(i64 8, ptr %11) #12
  %14 = call ptr @getenv_utf8(ptr noundef @.str.58)
  store ptr %14, ptr %11, align 8, !tbaa !15
  call void @llvm.lifetime.start.p0(i64 24, ptr %12) #12
  %15 = load ptr, ptr %10, align 8, !tbaa !15
  store ptr %15, ptr %12, align 8, !tbaa !15
  %16 = getelementptr inbounds ptr, ptr %12, i64 1
  %17 = load ptr, ptr %11, align 8, !tbaa !15
  store ptr %17, ptr %16, align 8, !tbaa !15
  %18 = getelementptr inbounds ptr, ptr %12, i64 2
  store ptr @.str.59, ptr %18, align 8, !tbaa !15
  store i32 0, ptr %7, align 4, !tbaa !4
  br label %19

19:                                               ; preds = %71, %3
  %20 = load i32, ptr %7, align 4, !tbaa !4
  %21 = sext i32 %20 to i64
  %22 = icmp ult i64 %21, 3
  br i1 %22, label %23, label %26

23:                                               ; preds = %19
  %24 = load i32, ptr %8, align 4, !tbaa !4
  %25 = icmp slt i32 %24, 0
  br label %26

26:                                               ; preds = %23, %19
  %27 = phi i1 [ false, %19 ], [ %25, %23 ]
  br i1 %27, label %28, label %74

28:                                               ; preds = %26
  %29 = load i32, ptr %7, align 4, !tbaa !4
  %30 = sext i32 %29 to i64
  %31 = getelementptr inbounds [3 x ptr], ptr %12, i64 0, i64 %30
  %32 = load ptr, ptr %31, align 8, !tbaa !15
  %33 = icmp ne ptr %32, null
  br i1 %33, label %35, label %34

34:                                               ; preds = %28
  br label %71

35:                                               ; preds = %28
  %36 = load ptr, ptr %5, align 8, !tbaa !15
  %37 = icmp ne ptr %36, null
  br i1 %37, label %38, label %53

38:                                               ; preds = %35
  %39 = getelementptr inbounds [1000 x i8], ptr %9, i64 0, i64 0
  %40 = load i32, ptr %7, align 4, !tbaa !4
  %41 = sext i32 %40 to i64
  %42 = getelementptr inbounds [3 x ptr], ptr %12, i64 0, i64 %41
  %43 = load ptr, ptr %42, align 8, !tbaa !15
  %44 = load i32, ptr %7, align 4, !tbaa !4
  %45 = icmp ne i32 %44, 1
  %46 = select i1 %45, ptr @.str.61, ptr @.str.62
  %47 = load ptr, ptr %5, align 8, !tbaa !15
  %48 = load ptr, ptr %4, align 8, !tbaa !15
  %49 = call i32 (ptr, i64, ptr, ...) @snprintf(ptr noundef %39, i64 noundef 1000, ptr noundef @.str.60, ptr noundef %43, ptr noundef %46, ptr noundef %47, ptr noundef %48) #12
  %50 = load ptr, ptr %6, align 8, !tbaa !343
  %51 = getelementptr inbounds [1000 x i8], ptr %9, i64 0, i64 0
  %52 = call i32 @avio_open2(ptr noundef %50, ptr noundef %51, i32 noundef 1, ptr noundef @int_cb, ptr noundef null)
  store i32 %52, ptr %8, align 4, !tbaa !4
  br label %53

53:                                               ; preds = %38, %35
  %54 = load i32, ptr %8, align 4, !tbaa !4
  %55 = icmp slt i32 %54, 0
  br i1 %55, label %56, label %70

56:                                               ; preds = %53
  %57 = getelementptr inbounds [1000 x i8], ptr %9, i64 0, i64 0
  %58 = load i32, ptr %7, align 4, !tbaa !4
  %59 = sext i32 %58 to i64
  %60 = getelementptr inbounds [3 x ptr], ptr %12, i64 0, i64 %59
  %61 = load ptr, ptr %60, align 8, !tbaa !15
  %62 = load i32, ptr %7, align 4, !tbaa !4
  %63 = icmp ne i32 %62, 1
  %64 = select i1 %63, ptr @.str.61, ptr @.str.62
  %65 = load ptr, ptr %4, align 8, !tbaa !15
  %66 = call i32 (ptr, i64, ptr, ...) @snprintf(ptr noundef %57, i64 noundef 1000, ptr noundef @.str.63, ptr noundef %61, ptr noundef %64, ptr noundef %65) #12
  %67 = load ptr, ptr %6, align 8, !tbaa !343
  %68 = getelementptr inbounds [1000 x i8], ptr %9, i64 0, i64 0
  %69 = call i32 @avio_open2(ptr noundef %67, ptr noundef %68, i32 noundef 1, ptr noundef @int_cb, ptr noundef null)
  store i32 %69, ptr %8, align 4, !tbaa !4
  br label %70

70:                                               ; preds = %56, %53
  br label %71

71:                                               ; preds = %70, %34
  %72 = load i32, ptr %7, align 4, !tbaa !4
  %73 = add nsw i32 %72, 1
  store i32 %73, ptr %7, align 4, !tbaa !4
  br label %19, !llvm.loop !345

74:                                               ; preds = %26
  %75 = load ptr, ptr %11, align 8, !tbaa !15
  call void @freeenv_utf8(ptr noundef %75)
  %76 = load ptr, ptr %10, align 8, !tbaa !15
  call void @freeenv_utf8(ptr noundef %76)
  %77 = load i32, ptr %8, align 4, !tbaa !4
  call void @llvm.lifetime.end.p0(i64 24, ptr %12) #12
  call void @llvm.lifetime.end.p0(i64 8, ptr %11) #12
  call void @llvm.lifetime.end.p0(i64 8, ptr %10) #12
  call void @llvm.lifetime.end.p0(i64 1000, ptr %9) #12
  call void @llvm.lifetime.end.p0(i64 4, ptr %8) #12
  call void @llvm.lifetime.end.p0(i64 4, ptr %7) #12
  ret i32 %77
}