; Function Attrs: nounwind uwtable
define internal fastcc i32 @get_preset_file_2(ptr noundef nonnull %0, ptr noundef %1, ptr noundef nonnull %2) unnamed_addr #0 {
  %4 = alloca [1000 x i8], align 16
  %5 = alloca [3 x ptr], align 16
  call void @llvm.lifetime.start.p0(i64 1000, ptr nonnull %4) #16
  %6 = tail call noundef ptr @getenv(ptr noundef nonnull @.str.57) #16
  %7 = tail call noundef ptr @getenv(ptr noundef nonnull @.str.58) #16
  call void @llvm.lifetime.start.p0(i64 24, ptr nonnull %5) #16
  store ptr %6, ptr %5, align 16, !tbaa !139
  %8 = getelementptr inbounds nuw i8, ptr %5, i64 8
  store ptr %7, ptr %8, align 8, !tbaa !139
  %9 = getelementptr inbounds nuw i8, ptr %5, i64 16
  store ptr @.str.59, ptr %9, align 16, !tbaa !139
  %.not23 = icmp eq ptr %1, null
  br i1 %.not23, label %.split.us, label %.split

.split.us:                                        ; preds = %3, %15
  %indvars.iv33 = phi i64 [ %indvars.iv.next34, %15 ], [ 0, %3 ]
  %.01927.us = phi i32 [ %.1.us, %15 ], [ -1, %3 ]
  %10 = getelementptr inbounds nuw [3 x ptr], ptr %5, i64 0, i64 %indvars.iv33
  %11 = load ptr, ptr %10, align 8, !tbaa !139
  %.not.us = icmp eq ptr %11, null
  br i1 %.not.us, label %15, label %.thread.us

.thread.us:                                       ; preds = %.split.us
  %.not25.us = icmp eq i64 %indvars.iv33, 1
  %12 = select i1 %.not25.us, ptr @.str.62, ptr @.str.61
  %13 = call i32 (ptr, i64, ptr, ...) @snprintf(ptr noundef nonnull dereferenceable(1) %4, i64 noundef 1000, ptr noundef nonnull @.str.63, ptr noundef nonnull %11, ptr noundef nonnull %12, ptr noundef nonnull %0) #16
  %14 = call i32 @avio_open2(ptr noundef nonnull %2, ptr noundef nonnull %4, i32 noundef 1, ptr noundef nonnull @int_cb, ptr noundef null) #16
  br label %15

15:                                               ; preds = %.thread.us, %.split.us
  %.1.us = phi i32 [ %14, %.thread.us ], [ %.01927.us, %.split.us ]
  %indvars.iv.next34 = add nuw nsw i64 %indvars.iv33, 1
  %16 = icmp samesign ult i64 %indvars.iv33, 2
  %17 = icmp slt i32 %.1.us, 0
  %18 = select i1 %16, i1 %17, i1 false
  br i1 %18, label %.split.us, label %.split30.us, !llvm.loop !401

.split:                                           ; preds = %3, %28
  %indvars.iv = phi i64 [ %indvars.iv.next, %28 ], [ 0, %3 ]
  %.01927 = phi i32 [ %.1, %28 ], [ -1, %3 ]
  %19 = getelementptr inbounds nuw [3 x ptr], ptr %5, i64 0, i64 %indvars.iv
  %20 = load ptr, ptr %19, align 8, !tbaa !139
  %.not = icmp eq ptr %20, null
  br i1 %.not, label %28, label %21

21:                                               ; preds = %.split
  %.not24 = icmp eq i64 %indvars.iv, 1
  %22 = select i1 %.not24, ptr @.str.62, ptr @.str.61
  %23 = call i32 (ptr, i64, ptr, ...) @snprintf(ptr noundef nonnull dereferenceable(1) %4, i64 noundef 1000, ptr noundef nonnull @.str.60, ptr noundef nonnull %20, ptr noundef nonnull %22, ptr noundef nonnull %1, ptr noundef nonnull %0) #16
  %24 = call i32 @avio_open2(ptr noundef nonnull %2, ptr noundef nonnull %4, i32 noundef 1, ptr noundef nonnull @int_cb, ptr noundef null) #16
  %25 = icmp slt i32 %24, 0
  br i1 %25, label %.thread, label %.split30.us

.thread:                                          ; preds = %21
  %26 = call i32 (ptr, i64, ptr, ...) @snprintf(ptr noundef nonnull dereferenceable(1) %4, i64 noundef 1000, ptr noundef nonnull @.str.63, ptr noundef nonnull %20, ptr noundef nonnull %22, ptr noundef nonnull %0) #16
  %27 = call i32 @avio_open2(ptr noundef nonnull %2, ptr noundef nonnull %4, i32 noundef 1, ptr noundef nonnull @int_cb, ptr noundef null) #16
  br label %28

28:                                               ; preds = %.thread, %.split
  %.1 = phi i32 [ %27, %.thread ], [ %.01927, %.split ]
  %indvars.iv.next = add nuw nsw i64 %indvars.iv, 1
  %29 = icmp samesign ult i64 %indvars.iv, 2
  %30 = icmp slt i32 %.1, 0
  %31 = select i1 %29, i1 %30, i1 false
  br i1 %31, label %.split, label %.split30.us, !llvm.loop !401

.split30.us:                                      ; preds = %21, %28, %15
  %.us-phi = phi i32 [ %.1.us, %15 ], [ %24, %21 ], [ %.1, %28 ]
  call void @llvm.lifetime.end.p0(i64 24, ptr nonnull %5) #16
  call void @llvm.lifetime.end.p0(i64 1000, ptr nonnull %4) #16
  ret i32 %.us-phi
}